Certificate:
    Data:
        Version: 3 (0x2)
        Serial Number: 4096 (0x1000)
        Signature Algorithm: sha256WithRSAEncryption
        Issuer: C=VN, ST=Hanoi, L=Hanoi, O=PTIT, OU=ATTT, CN=PTIT Root CA/emailAddress=ptit@gmail.com
        Validity
            Not Before: Apr 30 15:25:43 2026 GMT
            Not After : Apr 30 15:25:43 2027 GMT
        Subject: C=VN, ST=Hanoi, L=Hanoi, O=PTIT, OU=ATTT, CN=ptit.com/emailAddress=ptit@gmail.com
        Subject Public Key Info:
            Public Key Algorithm: rsaEncryption
                Public-Key: (2048 bit)
                Modulus:
                    00:a3:79:78:7e:f2:10:8f:71:a8:3a:7e:cb:53:db:
                    47:e5:92:b8:79:e9:48:8f:17:95:2e:df:f1:85:a1:
                    da:60:e3:08:0a:9c:93:3c:3b:95:54:49:27:29:50:
                    ee:a2:dc:55:71:e8:12:a5:76:61:07:5e:20:a5:8e:
                    98:f8:ea:87:7c:30:8d:c1:51:bd:e6:6b:a6:4b:1f:
                    f3:9d:23:ae:d4:db:94:e4:78:d9:96:6b:fc:44:89:
                    60:3d:70:f0:48:e7:d9:46:8d:8e:96:67:60:5e:3c:
                    b9:14:17:62:33:05:ef:3a:ba:60:bd:b0:a9:1a:af:
                    a3:0a:a1:42:c8:d8:81:eb:5b:a1:5f:1e:64:d8:52:
                    ee:1c:ae:31:0e:bf:42:e2:f5:0b:63:7a:39:ee:1d:
                    d1:a2:e6:4e:fb:8b:45:37:d8:8c:fb:cc:99:98:71:
                    44:37:09:ca:23:4a:fe:b0:7b:cc:62:67:9f:fe:bd:
                    7e:bd:7f:5c:3a:2f:d7:3d:7b:82:95:f1:c0:ab:c0:
                    91:17:f9:55:83:40:4b:49:63:04:c3:de:ff:95:1c:
                    db:03:82:00:8c:07:87:88:a1:bd:e8:25:48:1c:be:
                    a0:72:80:ed:27:b3:8a:2a:33:eb:8c:f9:43:ba:29:
                    ee:29:a3:9a:4e:a4:37:4e:a5:c9:9f:33:ac:18:93:
                    71:fd
                Exponent: 65537 (0x10001)
        X509v3 extensions:
            X509v3 Basic Constraints: 
                CA:FALSE
            X509v3 Key Usage: 
                Digital Signature, Key Encipherment
            X509v3 Extended Key Usage: 
                TLS Web Server Authentication
            X509v3 Subject Alternative Name: 
                DNS:ptit.com
            X509v3 Subject Key Identifier: 
                03:9F:DA:9B:8C:06:B4:7D:BE:72:6D:2A:3C:F4:68:96:00:38:41:4A
            X509v3 Authority Key Identifier: 
                4D:29:EF:C1:60:4F:37:61:2A:49:34:5E:30:BA:80:14:96:34:D7:41
    Signature Algorithm: sha256WithRSAEncryption
    Signature Value:
        68:a6:7d:b9:57:62:97:cb:03:e8:ed:94:66:ae:bb:66:f6:09:
        e2:22:c5:16:0c:e6:b6:ff:13:eb:de:d3:63:ba:5b:9c:96:be:
        d4:2d:d2:5a:3f:e8:16:94:03:61:dd:e0:d6:db:0a:8b:04:b5:
        38:07:ec:e0:32:89:a2:d2:f0:cc:8f:d8:16:3d:73:25:88:a5:
        ef:4b:99:98:8f:20:79:74:92:65:05:79:91:cf:ea:d5:62:99:
        17:09:17:ab:65:14:c7:68:3e:76:0f:56:28:2b:30:d9:ab:cb:
        44:29:19:4e:6e:1f:1f:ce:1b:1b:cc:c6:68:10:42:fe:04:c5:
        b3:43:f4:d0:40:0b:a7:d9:46:69:98:20:cf:b6:c9:e5:bd:51:
        c0:0e:6b:6b:4d:6e:80:b8:f2:0f:a6:64:38:3e:f2:17:3c:83:
        50:43:06:92:c4:d6:5f:47:d0:52:7a:f7:41:19:ca:0e:19:5f:
        36:7f:a1:af:18:72:f1:6f:b1:7f:b9:86:00:f6:fe:de:b0:08:
        fc:75:c9:8e:07:a6:6a:40:e9:9e:d8:6c:99:bb:c2:7a:28:5f:
        2c:2c:82:9b:11:e2:94:af:a0:e7:37:a7:ec:db:c9:f3:0f:48:
        dc:7c:f5:7e:68:7c:96:63:bb:f4:0c:34:d9:02:2e:94:e6:2f:
        df:66:d7:ac
-----BEGIN CERTIFICATE-----
MIIEATCCAumgAwIBAgICEAAwDQYJKoZIhvcNAQELBQAwgYExCzAJBgNVBAYTAlZO
MQ4wDAYDVQQIDAVIYW5vaTEOMAwGA1UEBwwFSGFub2kxDTALBgNVBAoMBFBUSVQx
DTALBgNVBAsMBEFUVFQxFTATBgNVBAMMDFBUSVQgUm9vdCBDQTEdMBsGCSqGSIb3
DQEJARYOcHRpdEBnbWFpbC5jb20wHhcNMjYwNDMwMTUyNTQzWhcNMjcwNDMwMTUy
NTQzWjB9MQswCQYDVQQGEwJWTjEOMAwGA1UECAwFSGFub2kxDjAMBgNVBAcMBUhh
bm9pMQ0wCwYDVQQKDARQVElUMQ0wCwYDVQQLDARBVFRUMREwDwYDVQQDDAhwdGl0
LmNvbTEdMBsGCSqGSIb3DQEJARYOcHRpdEBnbWFpbC5jb20wggEiMA0GCSqGSIb3
DQEBAQUAA4IBDwAwggEKAoIBAQCjeXh+8hCPcag6fstT20flkrh56UiPF5Uu3/GF
odpg4wgKnJM8O5VUSScpUO6i3FVx6BKldmEHXiCljpj46od8MI3BUb3ma6ZLH/Od
I67U25TkeNmWa/xEiWA9cPBI59lGjY6WZ2BePLkUF2IzBe86umC9sKkar6MKoULI
2IHrW6FfHmTYUu4crjEOv0Li9QtjejnuHdGi5k77i0U32Iz7zJmYcUQ3CcojSv6w
e8xiZ5/+vX69f1w6L9c9e4KV8cCrwJEX+VWDQEtJYwTD3v+VHNsDggCMB4eIob3o
JUgcvqBygO0ns4oqM+uM+UO6Ke4po5pOpDdOpcmfM6wYk3H9AgMBAAGjgYUwgYIw
CQYDVR0TBAIwADALBgNVHQ8EBAMCBaAwEwYDVR0lBAwwCgYIKwYBBQUHAwEwEwYD
VR0RBAwwCoIIcHRpdC5jb20wHQYDVR0OBBYEFAOf2puMBrR9vnJtKjz0aJYAOEFK
MB8GA1UdIwQYMBaAFE0p78FgTzdhKkk0XjC6gBSWNNdBMA0GCSqGSIb3DQEBCwUA
A4IBAQBopn25V2KXywPo7ZRmrrtm9gniIsUWDOa2/xPr3tNjuluclr7ULdJaP+gW
lANh3eDW2wqLBLU4B+zgMomi0vDMj9gWPXMliKXvS5mYjyB5dJJlBXmRz+rVYpkX
CRerZRTHaD52D1YoKzDZq8tEKRlObh8fzhsbzMZoEEL+BMWzQ/TQQAun2UZpmCDP
tsnlvVHADmtrTW6AuPIPpmQ4PvIXPINQQwaSxNZfR9BSevdBGcoOGV82f6GvGHLx
b7F/uYYA9v7esAj8dcmOB6ZqQOme2GyZu8J6KF8sLIKbEeKUr6DnN6fs28nzD0jc
fPV+aHyWY7v0DDTZAi6U5i/fZtes
-----END CERTIFICATE-----
