Certificate:
    Data:
        Version: 3 (0x2)
        Serial Number: 43981 (0xabcd)
        Signature Algorithm: sha256WithRSAEncryption
        Issuer: C=VN, ST=Hanoi, L=Hanoi, O=PTIT, OU=ATTT, CN=PTIT Root CA/emailAddress=ptit@gmail.com
        Validity
            Not Before: Apr 30 21:33:52 2026 GMT
            Not After : Apr 30 21:33:52 2027 GMT
        Subject: C=VN, ST=Hanoi, L=Hanoi, O=Hacker, OU=Compromised CA Lab, CN=hacker.com/emailAddress=hacker6@gmail.com
        Subject Public Key Info:
            Public Key Algorithm: rsaEncryption
                Public-Key: (2048 bit)
                Modulus:
                    00:92:63:18:f7:cc:4d:76:31:0b:00:92:61:21:46:
                    f8:58:4e:d0:16:0c:65:98:28:b1:a7:56:b0:a4:10:
                    fe:03:3e:31:1e:89:74:07:8d:d7:09:42:5f:08:5a:
                    f0:56:39:f5:05:05:dc:05:37:1b:04:f6:d7:c2:5d:
                    27:6a:bb:91:1a:ab:b7:4e:ef:5f:f1:11:e4:f0:9e:
                    b1:a3:21:0e:e7:48:c4:16:ea:fa:ce:8d:03:2a:21:
                    47:4f:0f:8c:86:8c:ae:af:27:24:c4:df:22:75:97:
                    72:81:95:b0:f9:ea:0e:31:19:64:ed:f8:f3:de:78:
                    a0:70:95:29:92:50:5f:10:65:e5:43:e8:77:7c:00:
                    04:32:49:f5:00:47:28:ac:42:6b:de:a1:75:a1:f2:
                    a1:84:49:4c:9e:8b:9b:1a:6b:af:15:04:bd:d5:a1:
                    df:33:05:54:44:f9:b0:92:34:2a:7e:6f:d3:07:60:
                    5b:b8:e6:e8:57:81:d1:36:dd:e9:cf:e1:fa:43:5d:
                    ba:5b:69:d0:66:97:71:77:b7:85:7f:23:e0:43:fe:
                    d0:91:69:40:58:23:33:de:5e:d4:21:a6:b0:44:9e:
                    2a:17:ed:7c:5e:23:24:4b:46:3a:24:19:ba:22:90:
                    8d:22:62:90:2d:32:62:ea:c5:98:30:ce:a1:74:b3:
                    12:3b
                Exponent: 65537 (0x10001)
        X509v3 extensions:
            X509v3 Basic Constraints: 
                CA:FALSE
            X509v3 Subject Key Identifier: 
                C1:6E:8A:F2:1E:30:58:EF:02:77:C6:4C:FF:AA:0A:8D:00:4B:A3:FC
            X509v3 Authority Key Identifier: 
                4D:29:EF:C1:60:4F:37:61:2A:49:34:5E:30:BA:80:14:96:34:D7:41
            X509v3 Subject Alternative Name: 
                DNS:hacker.com
    Signature Algorithm: sha256WithRSAEncryption
    Signature Value:
        7b:ff:b2:6a:5d:d7:52:4e:77:8d:f9:56:68:0b:c4:65:d1:6a:
        59:ad:8d:e1:6b:6b:a4:87:a1:76:c4:f8:7a:15:a4:fe:02:8a:
        33:53:ab:88:1c:7c:3e:e3:86:9d:7b:23:39:5b:a6:61:01:03:
        df:42:a8:b9:bb:04:b5:62:b2:c0:aa:05:d9:f2:a2:47:fb:37:
        a0:77:84:1d:c7:93:1c:42:2f:30:a7:27:db:8f:0b:36:ba:c5:
        c7:4d:70:5d:72:fe:7d:d1:8d:85:d2:25:ca:2a:2d:d7:26:e5:
        d8:c1:20:63:ef:67:d2:1c:7d:74:f1:c9:76:5c:90:b5:dc:45:
        f1:79:94:e3:44:95:db:46:b5:ea:d4:61:ce:61:4e:bd:41:09:
        82:98:20:52:3d:cf:e6:aa:00:85:55:b5:bb:09:ef:43:3b:50:
        94:08:d4:a6:a1:36:49:53:0a:ad:4d:d0:cc:2c:50:f2:20:cd:
        9d:8f:c0:2c:16:89:d8:e0:e9:2b:81:3c:d0:29:1a:2f:15:fe:
        b0:bc:11:47:3d:87:81:ff:c9:7a:b8:6f:79:1d:26:ff:f4:2c:
        80:2b:7e:d7:bf:89:19:67:da:f5:2b:62:85:c3:e0:6d:dd:6f:
        af:35:66:c2:93:03:11:26:cb:da:61:b3:6e:de:22:d6:60:d6:
        77:72:c3:b9
-----BEGIN CERTIFICATE-----
MIID9jCCAt6gAwIBAgIDAKvNMA0GCSqGSIb3DQEBCwUAMIGBMQswCQYDVQQGEwJW
TjEOMAwGA1UECAwFSGFub2kxDjAMBgNVBAcMBUhhbm9pMQ0wCwYDVQQKDARQVElU
MQ0wCwYDVQQLDARBVFRUMRUwEwYDVQQDDAxQVElUIFJvb3QgQ0ExHTAbBgkqhkiG
9w0BCQEWDnB0aXRAZ21haWwuY29tMB4XDTI2MDQzMDIxMzM1MloXDTI3MDQzMDIx
MzM1MlowgZIxCzAJBgNVBAYTAlZOMQ4wDAYDVQQIDAVIYW5vaTEOMAwGA1UEBwwF
SGFub2kxDzANBgNVBAoMBkhhY2tlcjEbMBkGA1UECwwSQ29tcHJvbWlzZWQgQ0Eg
TGFiMRMwEQYDVQQDDApoYWNrZXIuY29tMSAwHgYJKoZIhvcNAQkBFhFoYWNrZXI2
QGdtYWlsLmNvbTCCASIwDQYJKoZIhvcNAQEBBQADggEPADCCAQoCggEBAJJjGPfM
TXYxCwCSYSFG+FhO0BYMZZgosadWsKQQ/gM+MR6JdAeN1wlCXwha8FY59QUF3AU3
GwT218JdJ2q7kRqrt07vX/ER5PCesaMhDudIxBbq+s6NAyohR08PjIaMrq8nJMTf
InWXcoGVsPnqDjEZZO348954oHCVKZJQXxBl5UPod3wABDJJ9QBHKKxCa96hdaHy
oYRJTJ6LmxprrxUEvdWh3zMFVET5sJI0Kn5v0wdgW7jm6FeB0Tbd6c/h+kNdultp
0GaXcXe3hX8j4EP+0JFpQFgjM95e1CGmsESeKhftfF4jJEtGOiQZuiKQjSJikC0y
YurFmDDOoXSzEjsCAwEAAaNkMGIwCQYDVR0TBAIwADAdBgNVHQ4EFgQUwW6K8h4w
WO8Cd8ZM/6oKjQBLo/wwHwYDVR0jBBgwFoAUTSnvwWBPN2EqSTReMLqAFJY010Ew
FQYDVR0RBA4wDIIKaGFja2VyLmNvbTANBgkqhkiG9w0BAQsFAAOCAQEAe/+yal3X
Uk53jflWaAvEZdFqWa2N4WtrpIehdsT4ehWk/gKKM1OriBx8PuOGnXsjOVumYQED
30KoubsEtWKywKoF2fKiR/s3oHeEHceTHEIvMKcn248LNrrFx01wXXL+fdGNhdIl
yiot1ybl2MEgY+9n0hx9dPHJdlyQtdxF8XmU40SV20a16tRhzmFOvUEJgpggUj3P
5qoAhVW1uwnvQztQlAjUpqE2SVMKrU3QzCxQ8iDNnY/ALBaJ2ODpK4E80CkaLxX+
sLwRRz2Hgf/JerhveR0m//QsgCt+17+JGWfa9StihcPgbd1vrzVmwpMDESbL2mGz
bt4i1mDWd3LDuQ==
-----END CERTIFICATE-----
