Certificate:
    Data:
        Version: 3 (0x2)
        Serial Number: 4096 (0x1000)
        Signature Algorithm: sha256WithRSAEncryption
        Issuer: C=VN, ST=Hanoi, L=Hanoi, O=Fake Hacker CA, OU=MITM Lab, CN=Fake Hacker Root CA/emailAddress=fakeca@gmail.com
        Validity
            Not Before: Apr 30 20:13:46 2026 GMT
            Not After : Apr 30 20:13:46 2027 GMT
        Subject: C=VN, ST=Hanoi, L=Hanoi, O=Hacker, OU=Fake Web, CN=ptit.com/emailAddress=hacker@gmail.com
        Subject Public Key Info:
            Public Key Algorithm: rsaEncryption
                Public-Key: (2048 bit)
                Modulus:
                    00:a9:f2:9e:34:5a:c0:9b:71:59:5a:d9:91:f2:1e:
                    6d:d5:24:e8:a7:4a:69:73:fb:f4:6d:ef:dd:ee:13:
                    ae:d9:47:93:01:10:26:35:00:43:4c:47:b7:3b:c1:
                    f9:6b:33:51:e9:d9:39:46:51:e8:b4:60:19:ce:35:
                    9c:56:a8:8e:1c:10:22:69:f1:f5:f6:2b:e4:2a:bb:
                    e3:6c:30:30:42:34:45:d8:38:a0:03:fb:dc:0a:90:
                    96:47:f2:d5:92:4f:17:6d:72:9c:a0:62:19:41:fe:
                    df:23:01:ac:fd:e3:da:c9:ad:d8:93:ac:22:36:dd:
                    55:14:a7:30:6d:09:a4:86:94:37:68:40:01:01:a5:
                    24:f2:b3:04:ed:3a:56:b6:af:74:15:f5:e3:1f:44:
                    d1:f2:60:b9:56:98:fc:dd:6a:b8:5e:81:54:e2:24:
                    a6:5b:92:2b:1d:c2:e5:88:0c:98:37:a9:0d:f0:a0:
                    8d:86:07:19:c5:ae:56:2e:44:48:ed:a0:3e:ab:ce:
                    25:b3:93:b5:e0:d1:e6:73:28:39:aa:24:65:3b:af:
                    e0:7b:8f:3c:2a:0d:d9:74:65:1c:e6:36:84:51:c5:
                    19:4a:d4:3c:c1:a9:ab:6e:71:dd:6c:fd:e2:83:51:
                    42:2c:fe:ca:26:56:61:12:fe:12:34:e2:d2:4e:62:
                    ed:23
                Exponent: 65537 (0x10001)
        X509v3 extensions:
            X509v3 Basic Constraints: 
                CA:FALSE
            X509v3 Subject Key Identifier: 
                2E:F6:E5:A3:CD:17:0C:F4:AA:1F:4A:60:06:70:2C:F8:9E:BA:FE:BC
            X509v3 Authority Key Identifier: 
                CE:90:70:9E:1E:FA:89:62:0B:F8:72:D1:EA:40:CC:5C:2C:D8:D0:40
            X509v3 Subject Alternative Name: 
                DNS:ptit.com
    Signature Algorithm: sha256WithRSAEncryption
    Signature Value:
        83:4c:af:d6:ec:89:bb:f4:3c:31:18:bb:ca:45:7b:12:ac:d6:
        c8:66:75:d3:d5:b2:2e:86:bc:fb:83:f2:ae:aa:d3:7f:42:c0:
        80:ab:e3:76:9b:93:85:0d:c5:1d:49:57:b9:c4:83:4e:e1:c9:
        4e:cf:1a:a9:79:a2:e9:59:1a:d6:23:45:23:6c:7d:da:f2:b8:
        4a:b1:fc:ff:70:9c:36:81:c6:3e:63:a9:1d:d2:d4:3d:2d:c1:
        63:c1:32:86:f3:fd:4e:76:53:90:e5:47:49:68:c4:6a:80:a9:
        33:31:8b:cf:d9:94:58:df:56:80:f1:54:e3:67:cc:ac:7c:03:
        8e:4d:9c:45:07:f1:23:3f:0b:ac:d6:24:35:dc:f1:a0:f0:35:
        f6:12:bd:a2:9e:c5:c4:d4:cd:4e:f4:29:b0:05:7c:df:e6:43:
        b9:02:bf:fb:4e:8a:f5:ff:28:0b:4e:04:c3:92:97:49:bc:ed:
        e0:26:32:97:6c:22:31:d8:55:37:8c:17:c4:75:b1:b4:28:8a:
        9e:2e:50:69:08:ca:50:c9:73:4e:f4:93:5a:fc:8c:77:04:46:
        94:84:fd:c7:f1:4a:ee:cd:55:54:96:0f:7e:00:ee:32:9a:df:
        9f:63:71:39:f1:58:6c:51:b1:3d:15:9a:2b:62:5e:73:bd:95:
        11:eb:55:1e
-----BEGIN CERTIFICATE-----
MIID/TCCAuWgAwIBAgICEAAwDQYJKoZIhvcNAQELBQAwgZgxCzAJBgNVBAYTAlZO
MQ4wDAYDVQQIDAVIYW5vaTEOMAwGA1UEBwwFSGFub2kxFzAVBgNVBAoMDkZha2Ug
SGFja2VyIENBMREwDwYDVQQLDAhNSVRNIExhYjEcMBoGA1UEAwwTRmFrZSBIYWNr
ZXIgUm9vdCBDQTEfMB0GCSqGSIb3DQEJARYQZmFrZWNhQGdtYWlsLmNvbTAeFw0y
NjA0MzAyMDEzNDZaFw0yNzA0MzAyMDEzNDZaMIGFMQswCQYDVQQGEwJWTjEOMAwG
A1UECAwFSGFub2kxDjAMBgNVBAcMBUhhbm9pMQ8wDQYDVQQKDAZIYWNrZXIxETAP
BgNVBAsMCEZha2UgV2ViMREwDwYDVQQDDAhwdGl0LmNvbTEfMB0GCSqGSIb3DQEJ
ARYQaGFja2VyQGdtYWlsLmNvbTCCASIwDQYJKoZIhvcNAQEBBQADggEPADCCAQoC
ggEBAKnynjRawJtxWVrZkfIebdUk6KdKaXP79G3v3e4TrtlHkwEQJjUAQ0xHtzvB
+WszUenZOUZR6LRgGc41nFaojhwQImnx9fYr5Cq742wwMEI0Rdg4oAP73AqQlkfy
1ZJPF21ynKBiGUH+3yMBrP3j2smt2JOsIjbdVRSnMG0JpIaUN2hAAQGlJPKzBO06
VravdBX14x9E0fJguVaY/N1quF6BVOIkpluSKx3C5YgMmDepDfCgjYYHGcWuVi5E
SO2gPqvOJbOTteDR5nMoOaokZTuv4HuPPCoN2XRlHOY2hFHFGUrUPMGpq25x3Wz9
4oNRQiz+yiZWYRL+EjTi0k5i7SMCAwEAAaNiMGAwCQYDVR0TBAIwADAdBgNVHQ4E
FgQULvblo80XDPSqH0pgBnAs+J66/rwwHwYDVR0jBBgwFoAUzpBwnh76iWIL+HLR
6kDMXCzY0EAwEwYDVR0RBAwwCoIIcHRpdC5jb20wDQYJKoZIhvcNAQELBQADggEB
AINMr9bsibv0PDEYu8pFexKs1shmddPVsi6GvPuD8q6q039CwICr43abk4UNxR1J
V7nEg07hyU7PGql5oulZGtYjRSNsfdryuEqx/P9wnDaBxj5jqR3S1D0twWPBMobz
/U52U5DlR0loxGqAqTMxi8/ZlFjfVoDxVONnzKx8A45NnEUH8SM/C6zWJDXc8aDw
NfYSvaKexcTUzU70KbAFfN/mQ7kCv/tOivX/KAtOBMOSl0m87eAmMpdsIjHYVTeM
F8R1sbQoip4uUGkIylDJc070k1r8jHcERpSE/cfxSu7NVVSWD34A7jKa359jcTnx
WGxRsT0VmitiXnO9lRHrVR4=
-----END CERTIFICATE-----
